target datalayout = "e-m:e-p270:32:32-p271:32:32-p272:64:64-i64:64-i128:128-f80:128-n8:16:32:64-S128"
target triple = "x86_64-pc-linux-gnu"

%struct.strvec = type { ptr, i64, i64 }
%struct.string_list = type { ptr, i64, i64, i8, ptr }
%struct.remote = type { %struct.hashmap_entry, ptr, i32, i32, ptr, %struct.strvec, %struct.strvec, %struct.refspec, %struct.refspec, i32, i32, i32, i32, i32, ptr, ptr, ptr, ptr, %struct.string_list, i32, ptr }
%struct.hashmap_entry = type { ptr, i32 }
%struct.refspec = type { ptr, i32, i32, i32 }
%struct.known_remotes = type { ptr, ptr }
%struct.known_remote = type { ptr, ptr }

; Function Attrs: nounwind uwtable
define internal i32 @add_known_remote(ptr noundef %0, ptr noundef %1) #0 {
  %3 = alloca i32, align 4
  %4 = alloca ptr, align 8
  %5 = alloca ptr, align 8
  %6 = alloca ptr, align 8
  %7 = alloca ptr, align 8
  %8 = alloca i32, align 4
  store ptr %0, ptr %4, align 8, !tbaa !33
  store ptr %1, ptr %5, align 8, !tbaa !15
  call void @llvm.lifetime.start.p0(i64 8, ptr %6) #11
  %9 = load ptr, ptr %5, align 8, !tbaa !15
  store ptr %9, ptr %6, align 8, !tbaa !170
  call void @llvm.lifetime.start.p0(i64 8, ptr %7) #11
  %10 = load ptr, ptr %6, align 8, !tbaa !170
  %11 = getelementptr inbounds nuw %struct.known_remotes, ptr %10, i32 0, i32 0
  %12 = load ptr, ptr %11, align 8, !tbaa !78
  %13 = getelementptr inbounds nuw %struct.remote, ptr %12, i32 0, i32 1
  %14 = load ptr, ptr %13, align 8, !tbaa !81
  %15 = load ptr, ptr %4, align 8, !tbaa !33
  %16 = getelementptr inbounds nuw %struct.remote, ptr %15, i32 0, i32 1
  %17 = load ptr, ptr %16, align 8, !tbaa !81
  %18 = call i32 @strcmp(ptr noundef %14, ptr noundef %17) #14
  %19 = icmp ne i32 %18, 0
  br i1 %19, label %21, label %20

20:                                               ; preds = %2
  store i32 0, ptr %3, align 4
  store i32 1, ptr %8, align 4
  br label %34

21:                                               ; preds = %2
  %22 = call ptr @xmalloc(i64 noundef 16)
  store ptr %22, ptr %7, align 8, !tbaa !89
  %23 = load ptr, ptr %4, align 8, !tbaa !33
  %24 = load ptr, ptr %7, align 8, !tbaa !89
  %25 = getelementptr inbounds nuw %struct.known_remote, ptr %24, i32 0, i32 1
  store ptr %23, ptr %25, align 8, !tbaa !171
  %26 = load ptr, ptr %6, align 8, !tbaa !170
  %27 = getelementptr inbounds nuw %struct.known_remotes, ptr %26, i32 0, i32 1
  %28 = load ptr, ptr %27, align 8, !tbaa !88
  %29 = load ptr, ptr %7, align 8, !tbaa !89
  %30 = getelementptr inbounds nuw %struct.known_remote, ptr %29, i32 0, i32 0
  store ptr %28, ptr %30, align 8, !tbaa !90
  %31 = load ptr, ptr %7, align 8, !tbaa !89
  %32 = load ptr, ptr %6, align 8, !tbaa !170
  %33 = getelementptr inbounds nuw %struct.known_remotes, ptr %32, i32 0, i32 1
  store ptr %31, ptr %33, align 8, !tbaa !88
  store i32 0, ptr %3, align 4
  store i32 1, ptr %8, align 4
  br label %34

34:                                               ; preds = %21, %20
  call void @llvm.lifetime.end.p0(i64 8, ptr %7) #11
  call void @llvm.lifetime.end.p0(i64 8, ptr %6) #11
  %35 = load i32, ptr %3, align 4
  ret i32 %35
}