; Function Attrs: nounwind uwtable
define internal noundef i32 @add_known_remote(ptr noundef %0, ptr noundef captures(none) %1) #0 {
  %3 = load ptr, ptr %1, align 8, !tbaa !81
  %4 = getelementptr inbounds nuw i8, ptr %3, i64 16
  %5 = load ptr, ptr %4, align 8, !tbaa !54
  %6 = getelementptr inbounds nuw i8, ptr %0, i64 16
  %7 = load ptr, ptr %6, align 8, !tbaa !54
  %8 = tail call i32 @strcmp(ptr noundef nonnull dereferenceable(1) %5, ptr noundef nonnull dereferenceable(1) %7) #21
  %.not = icmp eq i32 %8, 0
  br i1 %.not, label %14, label %9

9:                                                ; preds = %2
  %10 = tail call ptr @xmalloc(i64 noundef 16) #19
  %11 = getelementptr inbounds nuw i8, ptr %10, i64 8
  store ptr %0, ptr %11, align 8, !tbaa !142
  %12 = getelementptr inbounds nuw i8, ptr %1, i64 8
  %13 = load ptr, ptr %12, align 8, !tbaa !90
  store ptr %13, ptr %10, align 8, !tbaa !91
  store ptr %10, ptr %12, align 8, !tbaa !90
  br label %14

14:                                               ; preds = %2, %9
  ret i32 0
}